target datalayout = "e-m:e-p270:32:32-p271:32:32-p272:64:64-i64:64-i128:128-f80:128-n8:16:32:64-S128"
target triple = "x86_64-pc-linux-gnu"

%union.ufmt_args = type { i64 }
%struct.u_printf_spec_info = type { i32, i32, i16, i16, i16, i8, i8, i8, i8, i8, i8, i8, i8, i8 }
%struct.u_printf_stream_handler = type { ptr, ptr }

@_ZL9gSpaceStr = internal constant [2 x i16] [i16 32, i16 0], align 2

; Function Attrs: mustprogress uwtable
define internal void @_ZL19u_printf_reset_signPPvPK18u_printf_spec_infoPDsPiP10UErrorCode(ptr noundef %0, ptr noundef %1, ptr noundef %2, ptr noundef %3, ptr noundef %4) #0 {
  %6 = alloca ptr, align 8
  %7 = alloca ptr, align 8
  %8 = alloca ptr, align 8
  %9 = alloca ptr, align 8
  %10 = alloca ptr, align 8
  store ptr %0, ptr %6, align 8, !tbaa !86
  store ptr %1, ptr %7, align 8, !tbaa !19
  store ptr %2, ptr %8, align 8, !tbaa !8
  store ptr %3, ptr %9, align 8, !tbaa !15
  store ptr %4, ptr %10, align 8, !tbaa !10
  %11 = load ptr, ptr %7, align 8, !tbaa !19
  %12 = getelementptr inbounds nuw %struct.u_printf_spec_info, ptr %11, i32 0, i32 8
  %13 = load i8, ptr %12, align 1, !tbaa !47
  %14 = icmp ne i8 %13, 0
  br i1 %14, label %15, label %21

15:                                               ; preds = %5
  %16 = load ptr, ptr %6, align 8, !tbaa !86
  %17 = load ptr, ptr %8, align 8, !tbaa !8
  %18 = load ptr, ptr %9, align 8, !tbaa !15
  %19 = load i32, ptr %18, align 4, !tbaa !36
  %20 = load ptr, ptr %10, align 8, !tbaa !10
  call void @unum_setTextAttribute_77(ptr noundef %16, i32 noundef 0, ptr noundef %17, i32 noundef %19, ptr noundef %20)
  br label %21

21:                                               ; preds = %15, %5
  ret void
}

; Function Attrs: inlinehint mustprogress nounwind uwtable
define internal noundef signext i8 @_ZL9U_FAILURE10UErrorCode(i32 noundef %0) #2 {
  %2 = alloca i32, align 4
  store i32 %0, ptr %2, align 4, !tbaa !23
  %3 = load i32, ptr %2, align 4, !tbaa !23
  %4 = icmp sgt i32 %3, 0
  %5 = zext i1 %4 to i8
  ret i8 %5
}

; Function Attrs: mustprogress uwtable
define internal void @_ZL17u_printf_set_signPPvPK18u_printf_spec_infoPDsPiP10UErrorCode(ptr noundef %0, ptr noundef %1, ptr noundef %2, ptr noundef %3, ptr noundef %4) #0 {
  %6 = alloca ptr, align 8
  %7 = alloca ptr, align 8
  %8 = alloca ptr, align 8
  %9 = alloca ptr, align 8
  %10 = alloca ptr, align 8
  %11 = alloca [8 x i16], align 16
  %12 = alloca i32, align 4
  store ptr %0, ptr %6, align 8, !tbaa !86
  store ptr %1, ptr %7, align 8, !tbaa !19
  store ptr %2, ptr %8, align 8, !tbaa !8
  store ptr %3, ptr %9, align 8, !tbaa !15
  store ptr %4, ptr %10, align 8, !tbaa !10
  %13 = load ptr, ptr %7, align 8, !tbaa !19
  %14 = getelementptr inbounds nuw %struct.u_printf_spec_info, ptr %13, i32 0, i32 8
  %15 = load i8, ptr %14, align 1, !tbaa !47
  %16 = icmp ne i8 %15, 0
  br i1 %16, label %17, label %42

17:                                               ; preds = %5
  %18 = load ptr, ptr %6, align 8, !tbaa !86
  %19 = load ptr, ptr %8, align 8, !tbaa !8
  %20 = load ptr, ptr %9, align 8, !tbaa !15
  %21 = load i32, ptr %20, align 4, !tbaa !36
  %22 = load ptr, ptr %10, align 8, !tbaa !10
  %23 = call i32 @unum_getTextAttribute_77(ptr noundef %18, i32 noundef 0, ptr noundef %19, i32 noundef %21, ptr noundef %22)
  %24 = load ptr, ptr %9, align 8, !tbaa !15
  store i32 %23, ptr %24, align 4, !tbaa !36
  %25 = load ptr, ptr %7, align 8, !tbaa !19
  %26 = getelementptr inbounds nuw %struct.u_printf_spec_info, ptr %25, i32 0, i32 6
  %27 = load i8, ptr %26, align 1, !tbaa !48
  %28 = icmp ne i8 %27, 0
  br i1 %28, label %29, label %32

29:                                               ; preds = %17
  %30 = load ptr, ptr %6, align 8, !tbaa !86
  %31 = load ptr, ptr %10, align 8, !tbaa !10
  call void @unum_setTextAttribute_77(ptr noundef %30, i32 noundef 0, ptr noundef @_ZL9gSpaceStr, i32 noundef 1, ptr noundef %31)
  br label %41

32:                                               ; preds = %17
  call void @llvm.lifetime.start.p0(i64 16, ptr %11) #9
  call void @llvm.lifetime.start.p0(i64 4, ptr %12) #9
  %33 = load ptr, ptr %6, align 8, !tbaa !86
  %34 = getelementptr inbounds [8 x i16], ptr %11, i64 0, i64 0
  %35 = load ptr, ptr %10, align 8, !tbaa !10
  %36 = call i32 @unum_getSymbol_77(ptr noundef %33, i32 noundef 7, ptr noundef %34, i32 noundef 8, ptr noundef %35)
  store i32 %36, ptr %12, align 4, !tbaa !36
  %37 = load ptr, ptr %6, align 8, !tbaa !86
  %38 = getelementptr inbounds [8 x i16], ptr %11, i64 0, i64 0
  %39 = load i32, ptr %12, align 4, !tbaa !36
  %40 = load ptr, ptr %10, align 8, !tbaa !10
  call void @unum_setTextAttribute_77(ptr noundef %37, i32 noundef 0, ptr noundef %38, i32 noundef %39, ptr noundef %40)
  call void @llvm.lifetime.end.p0(i64 4, ptr %12) #9
  call void @llvm.lifetime.end.p0(i64 16, ptr %11) #9
  br label %41

41:                                               ; preds = %32, %29
  br label %44

42:                                               ; preds = %5
  %43 = load ptr, ptr %9, align 8, !tbaa !15
  store i32 0, ptr %43, align 4, !tbaa !36
  br label %44

44:                                               ; preds = %42, %41
  ret void
}

; Function Attrs: mustprogress uwtable
define internal noundef i32 @_ZL25u_printf_spellout_handlerPK23u_printf_stream_handlerPvP13ULocaleBundlePK18u_printf_spec_infoPK9ufmt_args(ptr noundef %0, ptr noundef %1, ptr noundef %2, ptr noundef %3, ptr noundef %4) #0 {
  %6 = alloca i32, align 4
  %7 = alloca ptr, align 8
  %8 = alloca ptr, align 8
  %9 = alloca ptr, align 8
  %10 = alloca ptr, align 8
  %11 = alloca ptr, align 8
  %12 = alloca double, align 8
  %13 = alloca ptr, align 8
  %14 = alloca [1024 x i16], align 16
  %15 = alloca [1024 x i16], align 16
  %16 = alloca i32, align 4
  %17 = alloca i32, align 4
  %18 = alloca i32, align 4
  %19 = alloca i32, align 4
  %20 = alloca i32, align 4
  %21 = alloca i32, align 4
  %22 = alloca i32, align 4
  store ptr %0, ptr %7, align 8, !tbaa !3
  store ptr %1, ptr %8, align 8, !tbaa !10
  store ptr %2, ptr %9, align 8, !tbaa !13
  store ptr %3, ptr %10, align 8, !tbaa !19
  store ptr %4, ptr %11, align 8, !tbaa !21
  call void @llvm.lifetime.start.p0(i64 8, ptr %12) #9
  %23 = load ptr, ptr %11, align 8, !tbaa !21
  %24 = getelementptr inbounds %union.ufmt_args, ptr %23, i64 0
  %25 = load double, ptr %24, align 8, !tbaa !69
  store double %25, ptr %12, align 8, !tbaa !72
  call void @llvm.lifetime.start.p0(i64 8, ptr %13) #9
  call void @llvm.lifetime.start.p0(i64 2048, ptr %14) #9
  call void @llvm.lifetime.start.p0(i64 2048, ptr %15) #9
  call void @llvm.lifetime.start.p0(i64 4, ptr %16) #9
  store i32 2048, ptr %16, align 4, !tbaa !36
  call void @llvm.lifetime.start.p0(i64 4, ptr %17) #9
  call void @llvm.lifetime.start.p0(i64 4, ptr %18) #9
  call void @llvm.lifetime.start.p0(i64 4, ptr %19) #9
  call void @llvm.lifetime.start.p0(i64 4, ptr %20) #9
  store i32 0, ptr %20, align 4, !tbaa !23
  %26 = getelementptr inbounds [1024 x i16], ptr %15, i64 0, i64 0
  store i16 0, ptr %26, align 16, !tbaa !30
  %27 = load ptr, ptr %9, align 8, !tbaa !13
  %28 = call ptr @u_locbund_getNumberFormat_77(ptr noundef %27, i32 noundef 5)
  store ptr %28, ptr %13, align 8, !tbaa !86
  %29 = load ptr, ptr %13, align 8, !tbaa !86
  %30 = icmp eq ptr %29, null
  br i1 %30, label %31, label %32

31:                                               ; preds = %5
  store i32 0, ptr %6, align 4
  store i32 1, ptr %21, align 4
  br label %96

32:                                               ; preds = %5
  %33 = load ptr, ptr %13, align 8, !tbaa !86
  %34 = call i32 @unum_getAttribute_77(ptr noundef %33, i32 noundef 7)
  store i32 %34, ptr %17, align 4, !tbaa !36
  %35 = load ptr, ptr %13, align 8, !tbaa !86
  %36 = call i32 @unum_getAttribute_77(ptr noundef %35, i32 noundef 6)
  store i32 %36, ptr %18, align 4, !tbaa !36
  %37 = load ptr, ptr %10, align 8, !tbaa !19
  %38 = getelementptr inbounds nuw %struct.u_printf_spec_info, ptr %37, i32 0, i32 0
  %39 = load i32, ptr %38, align 4, !tbaa !42
  %40 = icmp ne i32 %39, -1
  br i1 %40, label %41, label %46

41:                                               ; preds = %32
  %42 = load ptr, ptr %13, align 8, !tbaa !86
  %43 = load ptr, ptr %10, align 8, !tbaa !19
  %44 = getelementptr inbounds nuw %struct.u_printf_spec_info, ptr %43, i32 0, i32 0
  %45 = load i32, ptr %44, align 4, !tbaa !42
  call void @unum_setAttribute_77(ptr noundef %42, i32 noundef 8, i32 noundef %45)
  br label %56

46:                                               ; preds = %32
  %47 = load ptr, ptr %10, align 8, !tbaa !19
  %48 = getelementptr inbounds nuw %struct.u_printf_spec_info, ptr %47, i32 0, i32 5
  %49 = load i8, ptr %48, align 2, !tbaa !49
  %50 = icmp ne i8 %49, 0
  br i1 %50, label %51, label %53

51:                                               ; preds = %46
  %52 = load ptr, ptr %13, align 8, !tbaa !86
  call void @unum_setAttribute_77(ptr noundef %52, i32 noundef 8, i32 noundef 6)
  br label %55

53:                                               ; preds = %46
  %54 = load ptr, ptr %13, align 8, !tbaa !86
  call void @unum_setAttribute_77(ptr noundef %54, i32 noundef 8, i32 noundef 6)
  br label %55

55:                                               ; preds = %53, %51
  br label %56

56:                                               ; preds = %55, %41
  %57 = load ptr, ptr %10, align 8, !tbaa !19
  %58 = getelementptr inbounds nuw %struct.u_printf_spec_info, ptr %57, i32 0, i32 8
  %59 = load i8, ptr %58, align 1, !tbaa !47
  %60 = icmp ne i8 %59, 0
  br i1 %60, label %61, label %65

61:                                               ; preds = %56
  %62 = load ptr, ptr %13, align 8, !tbaa !86
  %63 = load ptr, ptr %10, align 8, !tbaa !19
  %64 = getelementptr inbounds [1024 x i16], ptr %15, i64 0, i64 0
  call void @_ZL17u_printf_set_signPPvPK18u_printf_spec_infoPDsPiP10UErrorCode(ptr noundef %62, ptr noundef %63, ptr noundef %64, ptr noundef %16, ptr noundef %20)
  br label %65

65:                                               ; preds = %61, %56
  %66 = load ptr, ptr %13, align 8, !tbaa !86
  %67 = load double, ptr %12, align 8, !tbaa !72
  %68 = getelementptr inbounds [1024 x i16], ptr %14, i64 0, i64 0
  %69 = call i32 @unum_formatDouble_77(ptr noundef %66, double noundef %67, ptr noundef %68, i32 noundef 1024, ptr noundef null, ptr noundef %20)
  store i32 %69, ptr %19, align 4, !tbaa !36
  %70 = load i32, ptr %20, align 4, !tbaa !23
  %71 = call noundef signext i8 @_ZL9U_FAILURE10UErrorCode(i32 noundef %70)
  %72 = icmp ne i8 %71, 0
  br i1 %72, label %73, label %74

73:                                               ; preds = %65
  store i32 0, ptr %19, align 4, !tbaa !36
  br label %74

74:                                               ; preds = %73, %65
  %75 = load ptr, ptr %13, align 8, !tbaa !86
  %76 = load i32, ptr %17, align 4, !tbaa !36
  call void @unum_setAttribute_77(ptr noundef %75, i32 noundef 7, i32 noundef %76)
  %77 = load ptr, ptr %13, align 8, !tbaa !86
  %78 = load i32, ptr %18, align 4, !tbaa !36
  call void @unum_setAttribute_77(ptr noundef %77, i32 noundef 6, i32 noundef %78)
  %79 = load ptr, ptr %10, align 8, !tbaa !19
  %80 = getelementptr inbounds nuw %struct.u_printf_spec_info, ptr %79, i32 0, i32 8
  %81 = load i8, ptr %80, align 1, !tbaa !47
  %82 = icmp ne i8 %81, 0
  br i1 %82, label %83, label %87

83:                                               ; preds = %74
  call void @llvm.lifetime.start.p0(i64 4, ptr %22) #9
  store i32 0, ptr %22, align 4, !tbaa !23
  %84 = load ptr, ptr %13, align 8, !tbaa !86
  %85 = load ptr, ptr %10, align 8, !tbaa !19
  %86 = getelementptr inbounds [1024 x i16], ptr %15, i64 0, i64 0
  call void @_ZL19u_printf_reset_signPPvPK18u_printf_spec_infoPDsPiP10UErrorCode(ptr noundef %84, ptr noundef %85, ptr noundef %86, ptr noundef %16, ptr noundef %22)
  call void @llvm.lifetime.end.p0(i64 4, ptr %22) #9
  br label %87

87:                                               ; preds = %83, %74
  %88 = load ptr, ptr %7, align 8, !tbaa !3
  %89 = getelementptr inbounds nuw %struct.u_printf_stream_handler, ptr %88, i32 0, i32 1
  %90 = load ptr, ptr %89, align 8, !tbaa !85
  %91 = load ptr, ptr %8, align 8, !tbaa !10
  %92 = load ptr, ptr %10, align 8, !tbaa !19
  %93 = getelementptr inbounds [1024 x i16], ptr %14, i64 0, i64 0
  %94 = load i32, ptr %19, align 4, !tbaa !36
  %95 = call noundef i32 %90(ptr noundef %91, ptr noundef %92, ptr noundef %93, i32 noundef %94)
  store i32 %95, ptr %6, align 4
  store i32 1, ptr %21, align 4
  br label %96

96:                                               ; preds = %87, %31
  call void @llvm.lifetime.end.p0(i64 4, ptr %20) #9
  call void @llvm.lifetime.end.p0(i64 4, ptr %19) #9
  call void @llvm.lifetime.end.p0(i64 4, ptr %18) #9
  call void @llvm.lifetime.end.p0(i64 4, ptr %17) #9
  call void @llvm.lifetime.end.p0(i64 4, ptr %16) #9
  call void @llvm.lifetime.end.p0(i64 2048, ptr %15) #9
  call void @llvm.lifetime.end.p0(i64 2048, ptr %14) #9
  call void @llvm.lifetime.end.p0(i64 8, ptr %13) #9
  call void @llvm.lifetime.end.p0(i64 8, ptr %12) #9
  %97 = load i32, ptr %6, align 4
  ret i32 %97
}